target datalayout = "e-m:e-p270:32:32-p271:32:32-p272:64:64-i64:64-i128:128-f80:128-n8:16:32:64-S128"
target triple = "x86_64-unknown-linux-gnu"

%struct.VirtIODevice = type { %struct.DeviceState, ptr, i8, i8, i16, i64, i64, i64, i64, ptr, i16, i32, i32, ptr, %struct.MemoryListener, i16, i8, i8, i8, i8, i8, i8, i8, i8, i8, ptr, ptr, i8, i8, ptr, ptr, %union.anon.1, %struct.EventNotifier, i8 }
%struct.DeviceState = type { %struct.Object, ptr, ptr, i8, i8, i64, ptr, i32, i8, ptr, %struct.NamedGPIOListHead, %struct.NamedClockListHead, %struct.BusStateHead, i32, i32, i32, %struct.ResettableState, ptr, %struct.MemReentrancyGuard }
%struct.Object = type { ptr, ptr, ptr, i32, ptr }
%struct.NamedGPIOListHead = type { ptr }
%struct.NamedClockListHead = type { ptr }
%struct.BusStateHead = type { ptr }
%struct.ResettableState = type { i32, i8, i8 }
%struct.MemReentrancyGuard = type { i8 }
%struct.MemoryListener = type { ptr, ptr, ptr, ptr, ptr, ptr, ptr, ptr, ptr, ptr, ptr, ptr, ptr, ptr, ptr, ptr, ptr, i32, ptr, ptr, %union.anon, %union.anon.0 }
%union.anon = type { %struct.QTailQLink }
%struct.QTailQLink = type { ptr, ptr }
%union.anon.0 = type { %struct.QTailQLink }
%union.anon.1 = type { %struct.QTailQLink }
%struct.EventNotifier = type { i32, i32, i8 }
%struct.VirtQueue = type { %struct.VRing, ptr, i16, i8, i16, i8, i16, i8, i16, i8, i8, i16, i32, i16, ptr, ptr, %struct.EventNotifier, %struct.EventNotifier, i8, %struct.anon }
%struct.VRing = type { i32, i32, i32, i64, i64, i64, ptr }
%struct.anon = type { ptr, ptr }

@.str.42 = private unnamed_addr constant [27 x i8] c"../qemu/hw/virtio/virtio.c\00", align 1
@.str.96 = private unnamed_addr constant [7 x i8] c"device\00", align 1
@.str.97 = private unnamed_addr constant [101 x i8] c"/home/dtcxzyw/WorkSpace/Projects/compilers/llvm-opt-benchmark/bench/qemu/qemu/include/hw/qdev-core.h\00", align 1
@__func__.DEVICE = private unnamed_addr constant [7 x i8] c"DEVICE\00", align 1
@.str.98 = private unnamed_addr constant [11 x i8] c"virtio-bus\00", align 1
@.str.99 = private unnamed_addr constant [109 x i8] c"/home/dtcxzyw/WorkSpace/Projects/compilers/llvm-opt-benchmark/bench/qemu/qemu/include/hw/virtio/virtio-bus.h\00", align 1
@__func__.VIRTIO_BUS = private unnamed_addr constant [11 x i8] c"VIRTIO_BUS\00", align 1
@.str.172 = private unnamed_addr constant [7 x i8] c"r >= 0\00", align 1
@__PRETTY_FUNCTION__.virtio_device_start_ioeventfd_impl = private unnamed_addr constant [55 x i8] c"int virtio_device_start_ioeventfd_impl(VirtIODevice *)\00", align 1

; Function Attrs: nounwind sspstrong uwtable
define dso_local i32 @virtio_queue_get_num(ptr noundef %vdev, i32 noundef %n) #0 {
entry:
  %vdev.addr = alloca ptr, align 8
  %n.addr = alloca i32, align 4
  store ptr %vdev, ptr %vdev.addr, align 8
  store i32 %n, ptr %n.addr, align 4
  %0 = load ptr, ptr %vdev.addr, align 8
  %vq = getelementptr inbounds %struct.VirtIODevice, ptr %0, i32 0, i32 13
  %1 = load ptr, ptr %vq, align 8
  %2 = load i32, ptr %n.addr, align 4
  %idxprom = sext i32 %2 to i64
  %arrayidx = getelementptr %struct.VirtQueue, ptr %1, i64 %idxprom
  %vring = getelementptr inbounds %struct.VirtQueue, ptr %arrayidx, i32 0, i32 0
  %num = getelementptr inbounds %struct.VRing, ptr %vring, i32 0, i32 0
  %3 = load i32, ptr %num, align 8
  ret i32 %3
}

; Function Attrs: nounwind sspstrong uwtable
define internal ptr @VIRTIO_BUS(ptr noundef %obj) #0 {
entry:
  %obj.addr = alloca ptr, align 8
  store ptr %obj, ptr %obj.addr, align 8
  %0 = load ptr, ptr %obj.addr, align 8
  %call = call ptr @object_dynamic_cast_assert(ptr noundef %0, ptr noundef @.str.98, ptr noundef @.str.99, i32 noundef 36, ptr noundef @__func__.VIRTIO_BUS)
  ret ptr %call
}

; Function Attrs: nounwind sspstrong uwtable
define internal ptr @DEVICE(ptr noundef %obj) #0 {
entry:
  %obj.addr = alloca ptr, align 8
  store ptr %obj, ptr %obj.addr, align 8
  %0 = load ptr, ptr %obj.addr, align 8
  %call = call ptr @object_dynamic_cast_assert(ptr noundef %0, ptr noundef @.str.96, ptr noundef @.str.97, i32 noundef 77, ptr noundef @__func__.DEVICE)
  ret ptr %call
}

; Function Attrs: nounwind sspstrong uwtable
define internal i32 @virtio_device_start_ioeventfd_impl(ptr noundef %vdev) #0 {
entry:
  %retval = alloca i32, align 4
  %vdev.addr = alloca ptr, align 8
  %qbus = alloca ptr, align 8
  %i = alloca i32, align 4
  %n = alloca i32, align 4
  %r = alloca i32, align 4
  %err = alloca i32, align 4
  %vq = alloca ptr, align 8
  %vq12 = alloca ptr, align 8
  %vq25 = alloca ptr, align 8
  store ptr %vdev, ptr %vdev.addr, align 8
  %0 = load ptr, ptr %vdev.addr, align 8
  %call = call ptr @DEVICE(ptr noundef %0)
  %call1 = call ptr @qdev_get_parent_bus(ptr noundef %call)
  %call2 = call ptr @VIRTIO_BUS(ptr noundef %call1)
  store ptr %call2, ptr %qbus, align 8
  call void @memory_region_transaction_begin()
  store i32 0, ptr %n, align 4
  br label %for.cond

for.cond:                                         ; preds = %for.inc, %entry
  %1 = load i32, ptr %n, align 4
  %cmp = icmp slt i32 %1, 1024
  br i1 %cmp, label %for.body, label %for.end

for.body:                                         ; preds = %for.cond
  %2 = load ptr, ptr %vdev.addr, align 8
  %vq3 = getelementptr inbounds %struct.VirtIODevice, ptr %2, i32 0, i32 13
  %3 = load ptr, ptr %vq3, align 8
  %4 = load i32, ptr %n, align 4
  %idxprom = sext i32 %4 to i64
  %arrayidx = getelementptr %struct.VirtQueue, ptr %3, i64 %idxprom
  store ptr %arrayidx, ptr %vq, align 8
  %5 = load ptr, ptr %vdev.addr, align 8
  %6 = load i32, ptr %n, align 4
  %call4 = call i32 @virtio_queue_get_num(ptr noundef %5, i32 noundef %6)
  %tobool = icmp ne i32 %call4, 0
  br i1 %tobool, label %if.end, label %if.then

if.then:                                          ; preds = %for.body
  br label %for.inc

if.end:                                           ; preds = %for.body
  %7 = load ptr, ptr %qbus, align 8
  %8 = load i32, ptr %n, align 4
  %call5 = call i32 @virtio_bus_set_host_notifier(ptr noundef %7, i32 noundef %8, i1 noundef zeroext true)
  store i32 %call5, ptr %r, align 4
  %9 = load i32, ptr %r, align 4
  %cmp6 = icmp slt i32 %9, 0
  br i1 %cmp6, label %if.then7, label %if.end8

if.then7:                                         ; preds = %if.end
  %10 = load i32, ptr %r, align 4
  store i32 %10, ptr %err, align 4
  br label %assign_error

if.end8:                                          ; preds = %if.end
  %11 = load ptr, ptr %vq, align 8
  %host_notifier = getelementptr inbounds %struct.VirtQueue, ptr %11, i32 0, i32 17
  call void @event_notifier_set_handler(ptr noundef %host_notifier, ptr noundef @virtio_queue_host_notifier_read)
  br label %for.inc

for.inc:                                          ; preds = %if.end8, %if.then
  %12 = load i32, ptr %n, align 4
  %inc = add i32 %12, 1
  store i32 %inc, ptr %n, align 4
  br label %for.cond, !llvm.loop !63

for.end:                                          ; preds = %for.cond
  store i32 0, ptr %n, align 4
  br label %for.cond9

for.cond9:                                        ; preds = %for.inc21, %for.end
  %13 = load i32, ptr %n, align 4
  %cmp10 = icmp slt i32 %13, 1024
  br i1 %cmp10, label %for.body11, label %for.end23

for.body11:                                       ; preds = %for.cond9
  %14 = load ptr, ptr %vdev.addr, align 8
  %vq13 = getelementptr inbounds %struct.VirtIODevice, ptr %14, i32 0, i32 13
  %15 = load ptr, ptr %vq13, align 8
  %16 = load i32, ptr %n, align 4
  %idxprom14 = sext i32 %16 to i64
  %arrayidx15 = getelementptr %struct.VirtQueue, ptr %15, i64 %idxprom14
  store ptr %arrayidx15, ptr %vq12, align 8
  %17 = load ptr, ptr %vq12, align 8
  %vring = getelementptr inbounds %struct.VirtQueue, ptr %17, i32 0, i32 0
  %num = getelementptr inbounds %struct.VRing, ptr %vring, i32 0, i32 0
  %18 = load i32, ptr %num, align 8
  %tobool16 = icmp ne i32 %18, 0
  br i1 %tobool16, label %if.end18, label %if.then17

if.then17:                                        ; preds = %for.body11
  br label %for.inc21

if.end18:                                         ; preds = %for.body11
  %19 = load ptr, ptr %vq12, align 8
  %host_notifier19 = getelementptr inbounds %struct.VirtQueue, ptr %19, i32 0, i32 17
  %call20 = call i32 @event_notifier_set(ptr noundef %host_notifier19)
  br label %for.inc21

for.inc21:                                        ; preds = %if.end18, %if.then17
  %20 = load i32, ptr %n, align 4
  %inc22 = add i32 %20, 1
  store i32 %inc22, ptr %n, align 4
  br label %for.cond9, !llvm.loop !64

for.end23:                                        ; preds = %for.cond9
  call void @memory_region_transaction_commit()
  store i32 0, ptr %retval, align 4
  br label %return

assign_error:                                     ; preds = %if.then7
  %21 = load i32, ptr %n, align 4
  store i32 %21, ptr %i, align 4
  br label %while.cond

while.cond:                                       ; preds = %if.end37, %if.then31, %assign_error
  %22 = load i32, ptr %n, align 4
  %dec = add i32 %22, -1
  store i32 %dec, ptr %n, align 4
  %cmp24 = icmp sge i32 %dec, 0
  br i1 %cmp24, label %while.body, label %while.end

while.body:                                       ; preds = %while.cond
  %23 = load ptr, ptr %vdev.addr, align 8
  %vq26 = getelementptr inbounds %struct.VirtIODevice, ptr %23, i32 0, i32 13
  %24 = load ptr, ptr %vq26, align 8
  %25 = load i32, ptr %n, align 4
  %idxprom27 = sext i32 %25 to i64
  %arrayidx28 = getelementptr %struct.VirtQueue, ptr %24, i64 %idxprom27
  store ptr %arrayidx28, ptr %vq25, align 8
  %26 = load ptr, ptr %vdev.addr, align 8
  %27 = load i32, ptr %n, align 4
  %call29 = call i32 @virtio_queue_get_num(ptr noundef %26, i32 noundef %27)
  %tobool30 = icmp ne i32 %call29, 0
  br i1 %tobool30, label %if.end32, label %if.then31

if.then31:                                        ; preds = %while.body
  br label %while.cond, !llvm.loop !65

if.end32:                                         ; preds = %while.body
  %28 = load ptr, ptr %vq25, align 8
  %host_notifier33 = getelementptr inbounds %struct.VirtQueue, ptr %28, i32 0, i32 17
  call void @event_notifier_set_handler(ptr noundef %host_notifier33, ptr noundef null)
  %29 = load ptr, ptr %qbus, align 8
  %30 = load i32, ptr %n, align 4
  %call34 = call i32 @virtio_bus_set_host_notifier(ptr noundef %29, i32 noundef %30, i1 noundef zeroext false)
  store i32 %call34, ptr %r, align 4
  %31 = load i32, ptr %r, align 4
  %cmp35 = icmp sge i32 %31, 0
  br i1 %cmp35, label %if.then36, label %if.else

if.then36:                                        ; preds = %if.end32
  br label %if.end37

if.else:                                          ; preds = %if.end32
  call void @__assert_fail(ptr noundef @.str.172, ptr noundef @.str.42, i32 noundef 3782, ptr noundef @__PRETTY_FUNCTION__.virtio_device_start_ioeventfd_impl) #13
  unreachable

if.end37:                                         ; preds = %if.then36
  br label %while.cond, !llvm.loop !65

while.end:                                        ; preds = %while.cond
  call void @memory_region_transaction_commit()
  br label %while.cond38

while.cond38:                                     ; preds = %if.end45, %if.then44, %while.end
  %32 = load i32, ptr %i, align 4
  %dec39 = add i32 %32, -1
  store i32 %dec39, ptr %i, align 4
  %cmp40 = icmp sge i32 %dec39, 0
  br i1 %cmp40, label %while.body41, label %while.end46

while.body41:                                     ; preds = %while.cond38
  %33 = load ptr, ptr %vdev.addr, align 8
  %34 = load i32, ptr %i, align 4
  %call42 = call i32 @virtio_queue_get_num(ptr noundef %33, i32 noundef %34)
  %tobool43 = icmp ne i32 %call42, 0
  br i1 %tobool43, label %if.end45, label %if.then44

if.then44:                                        ; preds = %while.body41
  br label %while.cond38, !llvm.loop !66

if.end45:                                         ; preds = %while.body41
  %35 = load ptr, ptr %qbus, align 8
  %36 = load i32, ptr %i, align 4
  call void @virtio_bus_cleanup_host_notifier(ptr noundef %35, i32 noundef %36)
  br label %while.cond38, !llvm.loop !66

while.end46:                                      ; preds = %while.cond38
  %37 = load i32, ptr %err, align 4
  store i32 %37, ptr %retval, align 4
  br label %return

return:                                           ; preds = %while.end46, %for.end23
  %38 = load i32, ptr %retval, align 4
  ret i32 %38
}