; Function Attrs: nounwind sspstrong uwtable
define internal range(i32 -2147483648, 1) i32 @virtio_device_start_ioeventfd_impl(ptr noundef %vdev) #0 {
entry:
  %call.i = tail call ptr @object_dynamic_cast_assert(ptr noundef %vdev, ptr noundef nonnull @.str.96, ptr noundef nonnull @.str.97, i32 noundef 77, ptr noundef nonnull @__func__.DEVICE) #23
  %call1 = tail call ptr @qdev_get_parent_bus(ptr noundef %call.i) #23
  %call.i26 = tail call ptr @object_dynamic_cast_assert(ptr noundef %call1, ptr noundef nonnull @.str.98, ptr noundef nonnull @.str.99, i32 noundef 36, ptr noundef nonnull @__func__.VIRTIO_BUS) #23
  tail call void @memory_region_transaction_begin() #23
  %vq3 = getelementptr inbounds nuw i8, ptr %vdev, i64 232
  br label %for.body

for.body:                                         ; preds = %entry, %for.inc
  %indvars.iv48 = phi i32 [ -1, %entry ], [ %indvars.iv.next49, %for.inc ]
  %indvars.iv = phi i64 [ 0, %entry ], [ %indvars.iv.next, %for.inc ]
  %0 = load ptr, ptr %vq3, align 8
  %arrayidx.i = getelementptr %struct.VirtQueue, ptr %0, i64 %indvars.iv
  %1 = load i32, ptr %arrayidx.i, align 8
  %tobool.not = icmp eq i32 %1, 0
  br i1 %tobool.not, label %for.inc, label %if.end

if.end:                                           ; preds = %for.body
  %2 = trunc nuw nsw i64 %indvars.iv to i32
  %call5 = tail call i32 @virtio_bus_set_host_notifier(ptr noundef %call.i26, i32 noundef %2, i1 noundef zeroext true) #23
  %cmp6 = icmp slt i32 %call5, 0
  br i1 %cmp6, label %while.cond.preheader, label %if.end8

while.cond.preheader:                             ; preds = %if.end
  %cmp2437.not = icmp eq i64 %indvars.iv, 0
  br i1 %cmp2437.not, label %return.sink.split, label %while.body

if.end8:                                          ; preds = %if.end
  %host_notifier = getelementptr %struct.VirtQueue, ptr %0, i64 %indvars.iv, i32 17
  tail call void @event_notifier_set_handler(ptr noundef %host_notifier, ptr noundef nonnull @virtio_queue_host_notifier_read) #23
  br label %for.inc

for.inc:                                          ; preds = %for.body, %if.end8
  %indvars.iv.next = add nuw nsw i64 %indvars.iv, 1
  %exitcond.not = icmp eq i64 %indvars.iv.next, 1024
  %indvars.iv.next49 = add nsw i32 %indvars.iv48, 1
  br i1 %exitcond.not, label %for.body11, label %for.body, !llvm.loop !59

for.body11:                                       ; preds = %for.inc, %for.inc21
  %indvars.iv54 = phi i64 [ %indvars.iv.next55, %for.inc21 ], [ 0, %for.inc ]
  %3 = load ptr, ptr %vq3, align 8
  %arrayidx15 = getelementptr %struct.VirtQueue, ptr %3, i64 %indvars.iv54
  %4 = load i32, ptr %arrayidx15, align 8
  %tobool16.not = icmp eq i32 %4, 0
  br i1 %tobool16.not, label %for.inc21, label %if.end18

if.end18:                                         ; preds = %for.body11
  %host_notifier19 = getelementptr inbounds nuw i8, ptr %arrayidx15, i64 116
  %call20 = tail call i32 @event_notifier_set(ptr noundef nonnull %host_notifier19) #23
  br label %for.inc21

for.inc21:                                        ; preds = %for.body11, %if.end18
  %indvars.iv.next55 = add nuw nsw i64 %indvars.iv54, 1
  %exitcond57.not = icmp eq i64 %indvars.iv.next55, 1024
  br i1 %exitcond57.not, label %return.sink.split, label %for.body11, !llvm.loop !60

while.body:                                       ; preds = %while.cond.preheader, %while.cond.backedge
  %indvars.iv45 = phi i64 [ %indvars.iv.next46, %while.cond.backedge ], [ %indvars.iv, %while.cond.preheader ]
  %indvars.iv.next46 = add nsw i64 %indvars.iv45, -1
  %5 = load ptr, ptr %vq3, align 8
  %arrayidx.i29 = getelementptr %struct.VirtQueue, ptr %5, i64 %indvars.iv.next46
  %6 = load i32, ptr %arrayidx.i29, align 8
  %tobool30.not = icmp eq i32 %6, 0
  br i1 %tobool30.not, label %while.cond.backedge, label %if.end32

while.cond.backedge:                              ; preds = %while.body, %if.end32
  %cmp24 = icmp sgt i64 %indvars.iv45, 1
  br i1 %cmp24, label %while.body, label %while.end, !llvm.loop !61

if.end32:                                         ; preds = %while.body
  %host_notifier33 = getelementptr %struct.VirtQueue, ptr %5, i64 %indvars.iv.next46, i32 17
  tail call void @event_notifier_set_handler(ptr noundef %host_notifier33, ptr noundef null) #23
  %7 = trunc nuw nsw i64 %indvars.iv.next46 to i32
  %call34 = tail call i32 @virtio_bus_set_host_notifier(ptr noundef %call.i26, i32 noundef %7, i1 noundef zeroext false) #23
  %cmp35 = icmp sgt i32 %call34, -1
  br i1 %cmp35, label %while.cond.backedge, label %if.else

if.else:                                          ; preds = %if.end32
  tail call void @__assert_fail(ptr noundef nonnull @.str.172, ptr noundef nonnull @.str.42, i32 noundef 3782, ptr noundef nonnull @__PRETTY_FUNCTION__.virtio_device_start_ioeventfd_impl) #24
  unreachable

while.end:                                        ; preds = %while.cond.backedge
  tail call void @memory_region_transaction_commit() #23
  %8 = zext i32 %indvars.iv48 to i64
  br label %while.body41

while.body41:                                     ; preds = %while.end, %while.cond38.backedge
  %indvars.iv51 = phi i64 [ %8, %while.end ], [ %indvars.iv.next52, %while.cond38.backedge ]
  %9 = load ptr, ptr %vq3, align 8
  %arrayidx.i32 = getelementptr %struct.VirtQueue, ptr %9, i64 %indvars.iv51
  %10 = load i32, ptr %arrayidx.i32, align 8
  %tobool43.not = icmp eq i32 %10, 0
  br i1 %tobool43.not, label %while.cond38.backedge, label %if.end45

if.end45:                                         ; preds = %while.body41
  %11 = trunc nuw nsw i64 %indvars.iv51 to i32
  tail call void @virtio_bus_cleanup_host_notifier(ptr noundef %call.i26, i32 noundef %11) #23
  br label %while.cond38.backedge

while.cond38.backedge:                            ; preds = %if.end45, %while.body41
  %indvars.iv.next52 = add nsw i64 %indvars.iv51, -1
  %cmp40 = icmp sgt i64 %indvars.iv51, 0
  br i1 %cmp40, label %while.body41, label %return, !llvm.loop !62

return.sink.split:                                ; preds = %for.inc21, %while.cond.preheader
  %retval.0.ph = phi i32 [ %call5, %while.cond.preheader ], [ 0, %for.inc21 ]
  tail call void @memory_region_transaction_commit() #23
  br label %return

return:                                           ; preds = %while.cond38.backedge, %return.sink.split
  %retval.0 = phi i32 [ %retval.0.ph, %return.sink.split ], [ %call5, %while.cond38.backedge ]
  ret i32 %retval.0
}